target datalayout = "e-m:e-p270:32:32-p271:32:32-p272:64:64-i64:64-i128:128-f80:128-n8:16:32:64-S128"
target triple = "x86_64-pc-linux-gnu"

%struct.Vec_Int_t_ = type { i32, i32, ptr }
%struct.Vec_Ptr_t_ = type { i32, i32, ptr }
%struct.Cnf_Dat_t_ = type { ptr, i32, i32, i32, ptr, ptr, ptr, ptr, ptr, ptr }
%struct.Gia_Man_t_ = type { ptr, ptr, i32, i32, i32, i32, ptr, ptr, i32, i32, i32, ptr, ptr, %struct.Vec_Int_t_, %struct.Vec_Int_t_, i32, i32, i32, %struct.Vec_Int_t_, ptr, ptr, ptr, i32, i32, i32, i32, ptr, ptr, ptr, ptr, ptr, i32, i32, ptr, i32, ptr, ptr, ptr, ptr, ptr, ptr, ptr, ptr, ptr, ptr, ptr, ptr, ptr, ptr, ptr, ptr, ptr, ptr, %struct.Vec_Int_t_, %struct.Vec_Int_t_, ptr, ptr, ptr, ptr, ptr, ptr, ptr, ptr, ptr, ptr, ptr, ptr, ptr, ptr, ptr, ptr, ptr, ptr, ptr, ptr, ptr, i32, float, float, ptr, ptr, i32, ptr, ptr, ptr, ptr, ptr, ptr, ptr, ptr, ptr, ptr, ptr, ptr, ptr, ptr, ptr, i64, i64, ptr, ptr, i32, i32, i32, i32, i32, i32, i32, i32, i32, i32, i32, i32, ptr, ptr, ptr, ptr, ptr, ptr, ptr, ptr, i32, i32, i32, ptr, i32, i32, ptr, ptr, ptr, ptr, ptr, ptr, i32, i32, ptr, %struct.Vec_Int_t_, %struct.Vec_Int_t_, %struct.Vec_Int_t_, ptr, ptr, ptr, i32, i32, i32, i32, ptr, ptr, ptr, ptr, ptr }

@.str.19 = private unnamed_addr constant [33 x i8] c"Output %3d (out of %3d) is SAT.\0A\00", align 1

; Function Attrs: inlinehint nounwind uwtable
define internal ptr @Vec_PtrAlloc(i32 noundef %0) #3 {
  %2 = alloca i32, align 4
  %3 = alloca ptr, align 8
  store i32 %0, ptr %2, align 4, !tbaa !8
  call void @llvm.lifetime.start.p0(i64 8, ptr %3) #9
  %4 = call noalias ptr @malloc(i64 noundef 16) #10
  store ptr %4, ptr %3, align 8, !tbaa !31
  %5 = load i32, ptr %2, align 4, !tbaa !8
  %6 = icmp sgt i32 %5, 0
  br i1 %6, label %7, label %11

7:                                                ; preds = %1
  %8 = load i32, ptr %2, align 4, !tbaa !8
  %9 = icmp slt i32 %8, 8
  br i1 %9, label %10, label %11

10:                                               ; preds = %7
  store i32 8, ptr %2, align 4, !tbaa !8
  br label %11

11:                                               ; preds = %10, %7, %1
  %12 = load ptr, ptr %3, align 8, !tbaa !31
  %13 = getelementptr inbounds nuw %struct.Vec_Ptr_t_, ptr %12, i32 0, i32 1
  store i32 0, ptr %13, align 4, !tbaa !34
  %14 = load i32, ptr %2, align 4, !tbaa !8
  %15 = load ptr, ptr %3, align 8, !tbaa !31
  %16 = getelementptr inbounds nuw %struct.Vec_Ptr_t_, ptr %15, i32 0, i32 0
  store i32 %14, ptr %16, align 8, !tbaa !112
  %17 = load ptr, ptr %3, align 8, !tbaa !31
  %18 = getelementptr inbounds nuw %struct.Vec_Ptr_t_, ptr %17, i32 0, i32 0
  %19 = load i32, ptr %18, align 8, !tbaa !112
  %20 = icmp ne i32 %19, 0
  br i1 %20, label %21, label %28

21:                                               ; preds = %11
  %22 = load ptr, ptr %3, align 8, !tbaa !31
  %23 = getelementptr inbounds nuw %struct.Vec_Ptr_t_, ptr %22, i32 0, i32 0
  %24 = load i32, ptr %23, align 8, !tbaa !112
  %25 = sext i32 %24 to i64
  %26 = mul i64 8, %25
  %27 = call noalias ptr @malloc(i64 noundef %26) #10
  br label %29

28:                                               ; preds = %11
  br label %29

29:                                               ; preds = %28, %21
  %30 = phi ptr [ %27, %21 ], [ null, %28 ]
  %31 = load ptr, ptr %3, align 8, !tbaa !31
  %32 = getelementptr inbounds nuw %struct.Vec_Ptr_t_, ptr %31, i32 0, i32 2
  store ptr %30, ptr %32, align 8, !tbaa !36
  %33 = load ptr, ptr %3, align 8, !tbaa !31
  call void @llvm.lifetime.end.p0(i64 8, ptr %3) #9
  ret ptr %33
}

; Function Attrs: inlinehint nounwind uwtable
define internal i32 @Vec_IntSize(ptr noundef %0) #3 {
  %2 = alloca ptr, align 8
  store ptr %0, ptr %2, align 8, !tbaa !51
  %3 = load ptr, ptr %2, align 8, !tbaa !51
  %4 = getelementptr inbounds nuw %struct.Vec_Int_t_, ptr %3, i32 0, i32 1
  %5 = load i32, ptr %4, align 4, !tbaa !54
  ret i32 %5
}

; Function Attrs: inlinehint nounwind uwtable
define internal void @Vec_PtrWriteEntry(ptr noundef %0, i32 noundef %1, ptr noundef %2) #3 {
  %4 = alloca ptr, align 8
  %5 = alloca i32, align 4
  %6 = alloca ptr, align 8
  store ptr %0, ptr %4, align 8, !tbaa !31
  store i32 %1, ptr %5, align 4, !tbaa !8
  store ptr %2, ptr %6, align 8, !tbaa !37
  %7 = load ptr, ptr %6, align 8, !tbaa !37
  %8 = load ptr, ptr %4, align 8, !tbaa !31
  %9 = getelementptr inbounds nuw %struct.Vec_Ptr_t_, ptr %8, i32 0, i32 2
  %10 = load ptr, ptr %9, align 8, !tbaa !36
  %11 = load i32, ptr %5, align 4, !tbaa !8
  %12 = sext i32 %11 to i64
  %13 = getelementptr inbounds ptr, ptr %10, i64 %12
  store ptr %7, ptr %13, align 8, !tbaa !37
  ret void
}

; Function Attrs: inlinehint nounwind uwtable
define internal i32 @Abc_Var2Lit(i32 noundef %0, i32 noundef %1) #3 {
  %3 = alloca i32, align 4
  %4 = alloca i32, align 4
  store i32 %0, ptr %3, align 4, !tbaa !8
  store i32 %1, ptr %4, align 4, !tbaa !8
  %5 = load i32, ptr %3, align 4, !tbaa !8
  %6 = load i32, ptr %3, align 4, !tbaa !8
  %7 = add nsw i32 %5, %6
  %8 = load i32, ptr %4, align 4, !tbaa !8
  %9 = add nsw i32 %7, %8
  ret i32 %9
}

; Function Attrs: inlinehint nounwind uwtable
define internal i32 @Gia_ManPiNum(ptr noundef %0) #3 {
  %2 = alloca ptr, align 8
  store ptr %0, ptr %2, align 8, !tbaa !86
  %3 = load ptr, ptr %2, align 8, !tbaa !86
  %4 = getelementptr inbounds nuw %struct.Gia_Man_t_, ptr %3, i32 0, i32 11
  %5 = load ptr, ptr %4, align 8, !tbaa !109
  %6 = call i32 @Vec_IntSize(ptr noundef %5)
  %7 = load ptr, ptr %2, align 8, !tbaa !86
  %8 = getelementptr inbounds nuw %struct.Gia_Man_t_, ptr %7, i32 0, i32 2
  %9 = load i32, ptr %8, align 8, !tbaa !108
  %10 = sub nsw i32 %6, %9
  ret i32 %10
}

; Function Attrs: inlinehint nounwind uwtable
define internal ptr @Vec_PtrStart(i32 noundef %0) #3 {
  %2 = alloca i32, align 4
  %3 = alloca ptr, align 8
  store i32 %0, ptr %2, align 4, !tbaa !8
  call void @llvm.lifetime.start.p0(i64 8, ptr %3) #9
  %4 = load i32, ptr %2, align 4, !tbaa !8
  %5 = call ptr @Vec_PtrAlloc(i32 noundef %4)
  store ptr %5, ptr %3, align 8, !tbaa !31
  %6 = load i32, ptr %2, align 4, !tbaa !8
  %7 = load ptr, ptr %3, align 8, !tbaa !31
  %8 = getelementptr inbounds nuw %struct.Vec_Ptr_t_, ptr %7, i32 0, i32 1
  store i32 %6, ptr %8, align 4, !tbaa !34
  %9 = load ptr, ptr %3, align 8, !tbaa !31
  %10 = getelementptr inbounds nuw %struct.Vec_Ptr_t_, ptr %9, i32 0, i32 2
  %11 = load ptr, ptr %10, align 8, !tbaa !36
  %12 = load i32, ptr %2, align 4, !tbaa !8
  %13 = sext i32 %12 to i64
  %14 = mul i64 8, %13
  call void @llvm.memset.p0.i64(ptr align 8 %11, i8 0, i64 %14, i1 false)
  %15 = load ptr, ptr %3, align 8, !tbaa !31
  call void @llvm.lifetime.end.p0(i64 8, ptr %3) #9
  ret ptr %15
}

; Function Attrs: inlinehint nounwind uwtable
define internal i32 @Gia_ManPoNum(ptr noundef %0) #3 {
  %2 = alloca ptr, align 8
  store ptr %0, ptr %2, align 8, !tbaa !86
  %3 = load ptr, ptr %2, align 8, !tbaa !86
  %4 = getelementptr inbounds nuw %struct.Gia_Man_t_, ptr %3, i32 0, i32 12
  %5 = load ptr, ptr %4, align 8, !tbaa !95
  %6 = call i32 @Vec_IntSize(ptr noundef %5)
  %7 = load ptr, ptr %2, align 8, !tbaa !86
  %8 = getelementptr inbounds nuw %struct.Gia_Man_t_, ptr %7, i32 0, i32 2
  %9 = load i32, ptr %8, align 8, !tbaa !108
  %10 = sub nsw i32 %6, %9
  ret i32 %10
}

; Function Attrs: nounwind uwtable
define ptr @Abc_NtkTryNewMiter(ptr noundef %0, ptr noundef %1) #0 {
  %3 = alloca ptr, align 8
  %4 = alloca ptr, align 8
  %5 = alloca i32, align 4
  %6 = alloca i32, align 4
  %7 = alloca ptr, align 8
  %8 = alloca i32, align 4
  %9 = alloca i32, align 4
  %10 = alloca i32, align 4
  %11 = alloca ptr, align 8
  %12 = alloca ptr, align 8
  %13 = alloca ptr, align 8
  %14 = alloca ptr, align 8
  %15 = alloca ptr, align 8
  %16 = alloca ptr, align 8
  %17 = alloca ptr, align 8
  %18 = alloca ptr, align 8
  %19 = alloca ptr, align 8
  %20 = alloca i32, align 4
  %21 = alloca i32, align 4
  %22 = alloca i32, align 4
  store ptr %0, ptr %3, align 8, !tbaa !71
  store ptr %1, ptr %4, align 8, !tbaa !71
  call void @llvm.lifetime.start.p0(i64 4, ptr %5) #9
  call void @llvm.lifetime.start.p0(i64 4, ptr %6) #9
  call void @llvm.lifetime.start.p0(i64 8, ptr %7) #9
  call void @llvm.lifetime.start.p0(i64 4, ptr %8) #9
  call void @llvm.lifetime.start.p0(i64 4, ptr %9) #9
  store i32 1, ptr %9, align 4, !tbaa !8
  call void @llvm.lifetime.start.p0(i64 4, ptr %10) #9
  store i32 100000, ptr %10, align 4, !tbaa !8
  call void @llvm.lifetime.start.p0(i64 8, ptr %11) #9
  store ptr null, ptr %11, align 8, !tbaa !82
  call void @llvm.lifetime.start.p0(i64 8, ptr %12) #9
  store ptr null, ptr %12, align 8, !tbaa !84
  call void @llvm.lifetime.start.p0(i64 8, ptr %13) #9
  store ptr null, ptr %13, align 8, !tbaa !31
  call void @llvm.lifetime.start.p0(i64 8, ptr %14) #9
  %23 = load ptr, ptr %3, align 8, !tbaa !71
  %24 = call ptr @Io_Read(ptr noundef %23, i32 noundef 18, i32 noundef 1, i32 noundef 0)
  store ptr %24, ptr %14, align 8, !tbaa !3
  call void @llvm.lifetime.start.p0(i64 8, ptr %15) #9
  %25 = load ptr, ptr %4, align 8, !tbaa !71
  %26 = call ptr @Io_Read(ptr noundef %25, i32 noundef 18, i32 noundef 1, i32 noundef 0)
  store ptr %26, ptr %15, align 8, !tbaa !3
  call void @llvm.lifetime.start.p0(i64 8, ptr %16) #9
  %27 = load ptr, ptr %14, align 8, !tbaa !3
  %28 = call ptr @Abc_NtkStrash(ptr noundef %27, i32 noundef 1, i32 noundef 1, i32 noundef 0)
  store ptr %28, ptr %16, align 8, !tbaa !3
  call void @llvm.lifetime.start.p0(i64 8, ptr %17) #9
  %29 = load ptr, ptr %15, align 8, !tbaa !3
  %30 = call ptr @Abc_NtkStrash(ptr noundef %29, i32 noundef 1, i32 noundef 1, i32 noundef 0)
  store ptr %30, ptr %17, align 8, !tbaa !3
  call void @llvm.lifetime.start.p0(i64 8, ptr %18) #9
  %31 = load ptr, ptr %16, align 8, !tbaa !3
  %32 = load ptr, ptr %17, align 8, !tbaa !3
  %33 = call ptr @Abc_NtkMiter(ptr noundef %31, ptr noundef %32, i32 noundef 1, i32 noundef 0, i32 noundef 0, i32 noundef 1)
  store ptr %33, ptr %18, align 8, !tbaa !3
  call void @llvm.lifetime.start.p0(i64 8, ptr %19) #9
  %34 = load ptr, ptr %18, align 8, !tbaa !3
  %35 = call ptr @Abc_NtkClpGia(ptr noundef %34)
  store ptr %35, ptr %19, align 8, !tbaa !86
  %36 = load ptr, ptr %14, align 8, !tbaa !3
  call void @Abc_NtkDelete(ptr noundef %36)
  %37 = load ptr, ptr %15, align 8, !tbaa !3
  call void @Abc_NtkDelete(ptr noundef %37)
  %38 = load ptr, ptr %16, align 8, !tbaa !3
  call void @Abc_NtkDelete(ptr noundef %38)
  %39 = load ptr, ptr %17, align 8, !tbaa !3
  call void @Abc_NtkDelete(ptr noundef %39)
  %40 = load ptr, ptr %18, align 8, !tbaa !3
  call void @Abc_NtkDelete(ptr noundef %40)
  %41 = load ptr, ptr %19, align 8, !tbaa !86
  %42 = call i32 @Gia_ManPoNum(ptr noundef %41)
  %43 = call ptr @Vec_PtrStart(i32 noundef %42)
  store ptr %43, ptr %13, align 8, !tbaa !31
  %44 = load ptr, ptr %19, align 8, !tbaa !86
  %45 = call ptr @Mf_ManGenerateCnf(ptr noundef %44, i32 noundef 8, i32 noundef 0, i32 noundef 0, i32 noundef 0, i32 noundef 0)
  store ptr %45, ptr %12, align 8, !tbaa !84
  %46 = load ptr, ptr %19, align 8, !tbaa !86
  %47 = call i32 @Gia_ManPiNum(ptr noundef %46)
  store i32 %47, ptr %6, align 4, !tbaa !8
  %48 = load ptr, ptr %12, align 8, !tbaa !84
  %49 = getelementptr inbounds nuw %struct.Cnf_Dat_t_, ptr %48, i32 0, i32 1
  %50 = load i32, ptr %49, align 8, !tbaa !88
  %51 = load i32, ptr %6, align 4, !tbaa !8
  %52 = sub nsw i32 %50, %51
  store i32 %52, ptr %8, align 4, !tbaa !8
  %53 = load i32, ptr %6, align 4, !tbaa !8
  %54 = sext i32 %53 to i64
  %55 = mul i64 4, %54
  %56 = call noalias ptr @malloc(i64 noundef %55) #10
  store ptr %56, ptr %7, align 8, !tbaa !92
  store i32 0, ptr %5, align 4, !tbaa !8
  br label %57

57:                                               ; preds = %69, %2
  %58 = load i32, ptr %5, align 4, !tbaa !8
  %59 = load i32, ptr %6, align 4, !tbaa !8
  %60 = icmp slt i32 %58, %59
  br i1 %60, label %61, label %72

61:                                               ; preds = %57
  %62 = load i32, ptr %8, align 4, !tbaa !8
  %63 = load i32, ptr %5, align 4, !tbaa !8
  %64 = add nsw i32 %62, %63
  %65 = load ptr, ptr %7, align 8, !tbaa !92
  %66 = load i32, ptr %5, align 4, !tbaa !8
  %67 = sext i32 %66 to i64
  %68 = getelementptr inbounds i32, ptr %65, i64 %67
  store i32 %64, ptr %68, align 4, !tbaa !8
  br label %69

69:                                               ; preds = %61
  %70 = load i32, ptr %5, align 4, !tbaa !8
  %71 = add nsw i32 %70, 1
  store i32 %71, ptr %5, align 4, !tbaa !8
  br label %57, !llvm.loop !93

72:                                               ; preds = %57
  %73 = load ptr, ptr %12, align 8, !tbaa !84
  %74 = call ptr @Cnf_DataWriteIntoSolver(ptr noundef %73, i32 noundef 1, i32 noundef 0)
  store ptr %74, ptr %11, align 8, !tbaa !82
  %75 = load ptr, ptr %12, align 8, !tbaa !84
  call void @Cnf_DataFree(ptr noundef %75)
  store i32 0, ptr %5, align 4, !tbaa !8
  br label %76

76:                                               ; preds = %108, %72
  %77 = load i32, ptr %5, align 4, !tbaa !8
  %78 = load ptr, ptr %19, align 8, !tbaa !86
  %79 = call i32 @Gia_ManPoNum(ptr noundef %78)
  %80 = icmp slt i32 %77, %79
  br i1 %80, label %81, label %111

81:                                               ; preds = %76
  call void @llvm.lifetime.start.p0(i64 4, ptr %20) #9
  %82 = load i32, ptr %9, align 4, !tbaa !8
  %83 = load i32, ptr %5, align 4, !tbaa !8
  %84 = add nsw i32 %82, %83
  %85 = call i32 @Abc_Var2Lit(i32 noundef %84, i32 noundef 0)
  store i32 %85, ptr %20, align 4, !tbaa !8
  call void @llvm.lifetime.start.p0(i64 4, ptr %21) #9
  %86 = load ptr, ptr %11, align 8, !tbaa !82
  %87 = getelementptr inbounds i32, ptr %20, i64 1
  %88 = load i32, ptr %10, align 4, !tbaa !8
  %89 = sext i32 %88 to i64
  %90 = call i32 @sat_solver_solve(ptr noundef %86, ptr noundef %20, ptr noundef %87, i64 noundef %89, i64 noundef 0, i64 noundef 0, i64 noundef 0)
  store i32 %90, ptr %21, align 4, !tbaa !8
  %91 = load i32, ptr %21, align 4, !tbaa !8
  %92 = icmp eq i32 %91, -1
  br i1 %92, label %93, label %94

93:                                               ; preds = %81
  store i32 7, ptr %22, align 4
  br label %105

94:                                               ; preds = %81
  %95 = load ptr, ptr %13, align 8, !tbaa !31
  %96 = load i32, ptr %5, align 4, !tbaa !8
  %97 = load ptr, ptr %11, align 8, !tbaa !82
  %98 = load ptr, ptr %7, align 8, !tbaa !92
  %99 = load i32, ptr %6, align 4, !tbaa !8
  %100 = call ptr @Sat_SolverGetModel(ptr noundef %97, ptr noundef %98, i32 noundef %99)
  call void @Vec_PtrWriteEntry(ptr noundef %95, i32 noundef %96, ptr noundef %100)
  %101 = load i32, ptr %5, align 4, !tbaa !8
  %102 = load ptr, ptr %19, align 8, !tbaa !86
  %103 = call i32 @Gia_ManPoNum(ptr noundef %102)
  %104 = call i32 (ptr, ...) @printf(ptr noundef @.str.19, i32 noundef %101, i32 noundef %103)
  store i32 0, ptr %22, align 4
  br label %105

105:                                              ; preds = %94, %93
  call void @llvm.lifetime.end.p0(i64 4, ptr %21) #9
  call void @llvm.lifetime.end.p0(i64 4, ptr %20) #9
  %106 = load i32, ptr %22, align 4
  switch i32 %106, label %121 [
    i32 0, label %107
    i32 7, label %108
  ]

107:                                              ; preds = %105
  br label %108

108:                                              ; preds = %107, %105
  %109 = load i32, ptr %5, align 4, !tbaa !8
  %110 = add nsw i32 %109, 1
  store i32 %110, ptr %5, align 4, !tbaa !8
  br label %76, !llvm.loop !94

111:                                              ; preds = %76
  %112 = load ptr, ptr %19, align 8, !tbaa !86
  call void @Gia_ManStop(ptr noundef %112)
  %113 = load ptr, ptr %11, align 8, !tbaa !82
  call void @sat_solver_delete(ptr noundef %113)
  %114 = load ptr, ptr %7, align 8, !tbaa !92
  %115 = icmp ne ptr %114, null
  br i1 %115, label %116, label %118

116:                                              ; preds = %111
  %117 = load ptr, ptr %7, align 8, !tbaa !92
  call void @free(ptr noundef %117) #9
  store ptr null, ptr %7, align 8, !tbaa !92
  br label %119

118:                                              ; preds = %111
  br label %119

119:                                              ; preds = %118, %116
  %120 = load ptr, ptr %13, align 8, !tbaa !31
  store i32 1, ptr %22, align 4
  call void @llvm.lifetime.end.p0(i64 8, ptr %19) #9
  call void @llvm.lifetime.end.p0(i64 8, ptr %18) #9
  call void @llvm.lifetime.end.p0(i64 8, ptr %17) #9
  call void @llvm.lifetime.end.p0(i64 8, ptr %16) #9
  call void @llvm.lifetime.end.p0(i64 8, ptr %15) #9
  call void @llvm.lifetime.end.p0(i64 8, ptr %14) #9
  call void @llvm.lifetime.end.p0(i64 8, ptr %13) #9
  call void @llvm.lifetime.end.p0(i64 8, ptr %12) #9
  call void @llvm.lifetime.end.p0(i64 8, ptr %11) #9
  call void @llvm.lifetime.end.p0(i64 4, ptr %10) #9
  call void @llvm.lifetime.end.p0(i64 4, ptr %9) #9
  call void @llvm.lifetime.end.p0(i64 4, ptr %8) #9
  call void @llvm.lifetime.end.p0(i64 8, ptr %7) #9
  call void @llvm.lifetime.end.p0(i64 4, ptr %6) #9
  call void @llvm.lifetime.end.p0(i64 4, ptr %5) #9
  ret ptr %120

121:                                              ; preds = %105
  unreachable
}