; Function Attrs: nounwind uwtable
define noalias noundef ptr @Abc_NtkTryNewMiter(ptr noundef %0, ptr noundef %1) local_unnamed_addr #0 {
  %3 = alloca i32, align 4
  %4 = tail call ptr @Io_Read(ptr noundef %0, i32 noundef 18, i32 noundef 1, i32 noundef 0) #16
  %5 = tail call ptr @Io_Read(ptr noundef %1, i32 noundef 18, i32 noundef 1, i32 noundef 0) #16
  %6 = tail call ptr @Abc_NtkStrash(ptr noundef %4, i32 noundef 1, i32 noundef 1, i32 noundef 0) #16
  %7 = tail call ptr @Abc_NtkStrash(ptr noundef %5, i32 noundef 1, i32 noundef 1, i32 noundef 0) #16
  %8 = tail call ptr @Abc_NtkMiter(ptr noundef %6, ptr noundef %7, i32 noundef 1, i32 noundef 0, i32 noundef 0, i32 noundef 1)
  %9 = tail call ptr @Abc_NtkClpGia(ptr noundef %8) #16
  tail call void @Abc_NtkDelete(ptr noundef %4) #16
  tail call void @Abc_NtkDelete(ptr noundef %5) #16
  tail call void @Abc_NtkDelete(ptr noundef %6) #16
  tail call void @Abc_NtkDelete(ptr noundef %7) #16
  tail call void @Abc_NtkDelete(ptr noundef %8) #16
  %10 = getelementptr i8, ptr %9, i64 16
  %.val = load i32, ptr %10, align 8, !tbaa !84
  %11 = getelementptr i8, ptr %9, i64 72
  %.val48 = load ptr, ptr %11, align 8, !tbaa !98
  %12 = getelementptr i8, ptr %.val48, i64 4
  %.val48.val = load i32, ptr %12, align 4, !tbaa !61
  %13 = sub nsw i32 %.val48.val, %.val
  %14 = tail call noalias dereferenceable_or_null(16) ptr @malloc(i64 noundef 16) #17
  %15 = add i32 %13, -1
  %or.cond.i.i = icmp ult i32 %15, 7
  %spec.store.select.i.i = select i1 %or.cond.i.i, i32 8, i32 %13
  store i32 %spec.store.select.i.i, ptr %14, align 8, !tbaa !40
  %.not.i.i = icmp eq i32 %spec.store.select.i.i, 0
  br i1 %.not.i.i, label %Vec_PtrStart.exit, label %16

16:                                               ; preds = %2
  %17 = sext i32 %spec.store.select.i.i to i64
  %18 = shl nsw i64 %17, 3
  %19 = tail call noalias ptr @malloc(i64 noundef %18) #17
  br label %Vec_PtrStart.exit

Vec_PtrStart.exit:                                ; preds = %2, %16
  %20 = phi ptr [ %19, %16 ], [ null, %2 ]
  %21 = getelementptr inbounds nuw i8, ptr %14, i64 4
  %22 = getelementptr inbounds nuw i8, ptr %14, i64 8
  store ptr %20, ptr %22, align 8, !tbaa !28
  store i32 %13, ptr %21, align 4, !tbaa !26
  %23 = sext i32 %13 to i64
  %24 = shl nsw i64 %23, 3
  tail call void @llvm.memset.p0.i64(ptr align 8 %20, i8 0, i64 %24, i1 false)
  %25 = tail call ptr @Mf_ManGenerateCnf(ptr noundef nonnull %9, i32 noundef 8, i32 noundef 0, i32 noundef 0, i32 noundef 0, i32 noundef 0) #16
  %.val53 = load i32, ptr %10, align 8, !tbaa !84
  %26 = getelementptr i8, ptr %9, i64 64
  %.val54 = load ptr, ptr %26, align 8, !tbaa !99
  %27 = getelementptr i8, ptr %.val54, i64 4
  %.val54.val = load i32, ptr %27, align 4, !tbaa !61
  %28 = sub nsw i32 %.val54.val, %.val53
  %29 = getelementptr inbounds nuw i8, ptr %25, i64 8
  %30 = load i32, ptr %29, align 8, !tbaa !100
  %31 = sext i32 %28 to i64
  %32 = shl nsw i64 %31, 2
  %33 = tail call noalias ptr @malloc(i64 noundef %32) #17
  %34 = icmp sgt i32 %28, 0
  br i1 %34, label %.lr.ph.preheader, label %._crit_edge

.lr.ph.preheader:                                 ; preds = %Vec_PtrStart.exit
  %35 = sub i32 %30, %28
  %wide.trip.count = zext nneg i32 %28 to i64
  br label %.lr.ph

.lr.ph:                                           ; preds = %.lr.ph.preheader, %.lr.ph
  %indvars.iv = phi i64 [ 0, %.lr.ph.preheader ], [ %indvars.iv.next, %.lr.ph ]
  %36 = getelementptr inbounds nuw i32, ptr %33, i64 %indvars.iv
  %37 = trunc i64 %indvars.iv to i32
  %38 = add i32 %35, %37
  store i32 %38, ptr %36, align 4, !tbaa !36
  %indvars.iv.next = add nuw nsw i64 %indvars.iv, 1
  %exitcond.not = icmp eq i64 %indvars.iv.next, %wide.trip.count
  br i1 %exitcond.not, label %._crit_edge, label %.lr.ph, !llvm.loop !104

._crit_edge:                                      ; preds = %.lr.ph, %Vec_PtrStart.exit
  %39 = tail call ptr @Cnf_DataWriteIntoSolver(ptr noundef %25, i32 noundef 1, i32 noundef 0) #16
  tail call void @Cnf_DataFree(ptr noundef %25) #16
  %.val4957 = load i32, ptr %10, align 8, !tbaa !84
  %.val5058 = load ptr, ptr %11, align 8, !tbaa !98
  %40 = getelementptr i8, ptr %.val5058, i64 4
  %.val50.val59 = load i32, ptr %40, align 4, !tbaa !61
  %41 = icmp sgt i32 %.val50.val59, %.val4957
  br i1 %41, label %.lr.ph62, label %._crit_edge63

.lr.ph62:                                         ; preds = %._crit_edge
  %42 = getelementptr inbounds nuw i8, ptr %3, i64 4
  br label %43

43:                                               ; preds = %.lr.ph62, %54
  %indvars.iv65 = phi i64 [ 0, %.lr.ph62 ], [ %indvars.iv.next66, %54 ]
  call void @llvm.lifetime.start.p0(i64 4, ptr nonnull %3) #16
  %indvars.iv.next66 = add nuw nsw i64 %indvars.iv65, 1
  %indvars.iv.next66.tr = trunc i64 %indvars.iv.next66 to i32
  %44 = shl i32 %indvars.iv.next66.tr, 1
  store i32 %44, ptr %3, align 4, !tbaa !36
  %45 = call i32 @sat_solver_solve(ptr noundef %39, ptr noundef nonnull %3, ptr noundef nonnull %42, i64 noundef 100000, i64 noundef 0, i64 noundef 0, i64 noundef 0) #16
  %46 = icmp eq i32 %45, -1
  br i1 %46, label %54, label %47

47:                                               ; preds = %43
  %48 = call ptr @Sat_SolverGetModel(ptr noundef %39, ptr noundef %33, i32 noundef %28) #16
  %49 = getelementptr inbounds nuw ptr, ptr %20, i64 %indvars.iv65
  store ptr %48, ptr %49, align 8, !tbaa !29
  %.val51 = load i32, ptr %10, align 8, !tbaa !84
  %.val52 = load ptr, ptr %11, align 8, !tbaa !98
  %50 = getelementptr i8, ptr %.val52, i64 4
  %.val52.val = load i32, ptr %50, align 4, !tbaa !61
  %51 = sub nsw i32 %.val52.val, %.val51
  %52 = trunc nuw nsw i64 %indvars.iv65 to i32
  %53 = call i32 (ptr, ...) @printf(ptr noundef nonnull dereferenceable(1) @.str.19, i32 noundef %52, i32 noundef %51)
  br label %54

54:                                               ; preds = %43, %47
  call void @llvm.lifetime.end.p0(i64 4, ptr nonnull %3) #16
  %.val49 = load i32, ptr %10, align 8, !tbaa !84
  %.val50 = load ptr, ptr %11, align 8, !tbaa !98
  %55 = getelementptr i8, ptr %.val50, i64 4
  %.val50.val = load i32, ptr %55, align 4, !tbaa !61
  %56 = sub nsw i32 %.val50.val, %.val49
  %57 = sext i32 %56 to i64
  %58 = icmp slt i64 %indvars.iv.next66, %57
  br i1 %58, label %43, label %._crit_edge63, !llvm.loop !105

._crit_edge63:                                    ; preds = %54, %._crit_edge
  call void @Gia_ManStop(ptr noundef nonnull %9) #16
  call void @sat_solver_delete(ptr noundef %39) #16
  %.not = icmp eq ptr %33, null
  br i1 %.not, label %60, label %59

59:                                               ; preds = %._crit_edge63
  call void @free(ptr noundef nonnull %33) #16
  br label %60

60:                                               ; preds = %._crit_edge63, %59
  ret ptr %14
}